; Function Attrs: mustprogress uwtable
define internal fastcc void @_ZL10entryCloseP18UResourceDataEntry(ptr noundef %resB) unnamed_addr #1 personality ptr @__gxx_personality_v0 {
entry:
  tail call void @umtx_lock_75(ptr noundef nonnull @_ZL9resbMutex)
  %cmp.not4.i = icmp eq ptr %resB, null
  br i1 %cmp.not4.i, label %_ZL13entryCloseIntP18UResourceDataEntry.exit, label %while.body.i

while.body.i:                                     ; preds = %entry, %while.body.i
  %resB.addr.05.i = phi ptr [ %0, %while.body.i ], [ %resB, %entry ]
  %fParent.i = getelementptr inbounds i8, ptr %resB.addr.05.i, i64 16
  %0 = load ptr, ptr %fParent.i, align 8
  %fCountExisting.i = getelementptr inbounds i8, ptr %resB.addr.05.i, i64 108
  %1 = load i32, ptr %fCountExisting.i, align 4
  %dec.i = add i32 %1, -1
  store i32 %dec.i, ptr %fCountExisting.i, align 4
  %cmp.not.i = icmp eq ptr %0, null
  br i1 %cmp.not.i, label %_ZL13entryCloseIntP18UResourceDataEntry.exit, label %while.body.i, !llvm.loop !4

_ZL13entryCloseIntP18UResourceDataEntry.exit:     ; preds = %while.body.i, %entry
  invoke void @umtx_unlock_75(ptr noundef nonnull @_ZL9resbMutex)
          to label %_ZN6icu_755MutexD2Ev.exit unwind label %terminate.lpad.i

terminate.lpad.i:                                 ; preds = %_ZL13entryCloseIntP18UResourceDataEntry.exit
  %2 = landingpad { ptr, i32 }
          catch ptr null
  %3 = extractvalue { ptr, i32 } %2, 0
  tail call void @__clang_call_terminate(ptr %3) #22
  unreachable

_ZN6icu_755MutexD2Ev.exit:                        ; preds = %_ZL13entryCloseIntP18UResourceDataEntry.exit
  ret void
}